target datalayout = "e-m:e-p270:32:32-p271:32:32-p272:64:64-i64:64-i128:128-f80:128-n8:16:32:64-S128"
target triple = "x86_64-pc-linux-gnu"

%struct.H5D_shared_t = type { i64, i8, i64, ptr, ptr, i64, i64, %struct.H5D_dcpl_cache_t, %struct.H5O_layout_t, i8, i32, [32 x i64], [32 x i64], [32 x i64], %struct.anon.6, %struct.H5D_append_flush_t, ptr, ptr }
%struct.H5D_dcpl_cache_t = type { %struct.H5O_fill_t, %struct.H5O_pline_t, %struct.H5O_efl_t }
%struct.H5O_fill_t = type { %struct.H5O_shared_t, i32, ptr, i64, ptr, i32, i32, i8 }
%struct.H5O_shared_t = type { i32, ptr, i32, %union.anon }
%union.anon = type { %struct.H5O_mesg_loc_t }
%struct.H5O_mesg_loc_t = type { i32, i64 }
%struct.H5O_pline_t = type { %struct.H5O_shared_t, i32, i64, i64, ptr }
%struct.H5O_efl_t = type { i64, i64, i64, ptr }
%struct.H5O_layout_t = type { i32, i32, ptr, %union.anon.0, %struct.H5O_storage_t }
%union.anon.0 = type { %struct.H5O_layout_chunk_t }
%struct.H5O_layout_chunk_t = type { i32, i8, i32, [33 x i32], i32, i32, i64, i64, [33 x i64], [33 x i64], [33 x i64], [33 x i64], %union.anon.1 }
%union.anon.1 = type { %struct.H5O_layout_chunk_earray_t }
%struct.H5O_layout_chunk_earray_t = type { %struct.anon.2, i32, [33 x i32], [33 x i64], [33 x i64] }
%struct.anon.2 = type { i8, i8, i8, i8, i8 }
%struct.H5O_storage_t = type { i32, %union.anon.4 }
%union.anon.4 = type { %struct.H5O_storage_virtual_t }
%struct.H5O_storage_virtual_t = type { %struct.H5HG_t, i64, ptr, i64, [32 x i64], i32, i64, i64, i64, i8 }
%struct.H5HG_t = type { i64, i64 }
%struct.anon.6 = type { %struct.H5D_rdcdc_t, %struct.H5D_rdcc_t }
%struct.H5D_rdcdc_t = type { ptr, i64, i64, i64, i8 }
%struct.H5D_rdcc_t = type { %struct.anon.7, i64, i64, double, ptr, ptr, ptr, i64, i32, %struct.H5D_chunk_cached_t, ptr, ptr, ptr, ptr, [32 x i64], [32 x i64], [32 x i32] }
%struct.anon.7 = type { i32, i32, i32, i32 }
%struct.H5D_chunk_cached_t = type { i8, [33 x i64], i64, i32, i64, i32 }
%struct.H5D_append_flush_t = type { i32, [32 x i64], ptr, ptr }
%struct.H5D_t = type { %struct.H5O_loc_t, %struct.H5G_name_t, ptr }
%struct.H5O_loc_t = type { ptr, i64, i8 }
%struct.H5G_name_t = type { ptr, ptr, i32 }
%struct.H5O_storage_contig_t = type { i64, i64 }

@H5D_init_g = external global i8, align 1
@H5_libterm_g = external global i8, align 1
@.str.2 = private unnamed_addr constant [100 x i8] c"generated/home/dtcxzyw/WorkSpace/Projects/compilers/llvm-opt-benchmark/bench/hdf5/hdf5/src/H5Dint.c\00", align 1
@H5E_BADTYPE_g = external global i64, align 8
@H5E_ARGS_g = external global i64, align 8
@__func__.H5D__get_offset = private unnamed_addr constant [16 x i8] c"H5D__get_offset\00", align 1
@.str.88 = private unnamed_addr constant [28 x i8] c"unknown dataset layout type\00", align 1

; Function Attrs: nounwind uwtable
define i64 @H5D__get_offset(ptr noundef %0) #0 {
  %2 = alloca ptr, align 8
  %3 = alloca i64, align 8
  %4 = alloca i8, align 1
  store ptr %0, ptr %2, align 8, !tbaa !49
  call void @llvm.lifetime.start.p0(i64 8, ptr %3) #12
  store i64 -1, ptr %3, align 8, !tbaa !11
  call void @llvm.lifetime.start.p0(i64 1, ptr %4) #12
  store i8 0, ptr %4, align 1, !tbaa !7
  %5 = load i8, ptr @H5D_init_g, align 1, !tbaa !7, !range !9, !noundef !10
  %6 = trunc i8 %5 to i1
  br i1 %6, label %11, label %7

7:                                                ; preds = %1
  %8 = load i8, ptr @H5_libterm_g, align 1, !tbaa !7, !range !9, !noundef !10
  %9 = trunc i8 %8 to i1
  %10 = xor i1 %9, true
  br label %11

11:                                               ; preds = %7, %1
  %12 = phi i1 [ true, %1 ], [ %10, %7 ]
  %13 = xor i1 %12, true
  %14 = xor i1 %13, true
  %15 = zext i1 %14 to i32
  %16 = sext i32 %15 to i64
  %17 = call i64 @llvm.expect.i64(i64 %16, i64 1)
  %18 = icmp ne i64 %17, 0
  br i1 %18, label %19, label %84

19:                                               ; preds = %11
  %20 = load ptr, ptr %2, align 8, !tbaa !49
  %21 = getelementptr inbounds nuw %struct.H5D_t, ptr %20, i32 0, i32 2
  %22 = load ptr, ptr %21, align 8, !tbaa !61
  %23 = getelementptr inbounds nuw %struct.H5D_shared_t, ptr %22, i32 0, i32 8
  %24 = getelementptr inbounds nuw %struct.H5O_layout_t, ptr %23, i32 0, i32 0
  %25 = load i32, ptr %24, align 8, !tbaa !67
  switch i32 %25, label %63 [
    i32 3, label %26
    i32 2, label %26
    i32 0, label %26
    i32 1, label %27
    i32 -1, label %62
    i32 4, label %62
  ]

26:                                               ; preds = %19, %19, %19
  br label %82

27:                                               ; preds = %19
  %28 = load ptr, ptr %2, align 8, !tbaa !49
  %29 = getelementptr inbounds nuw %struct.H5D_t, ptr %28, i32 0, i32 2
  %30 = load ptr, ptr %29, align 8, !tbaa !61
  %31 = getelementptr inbounds nuw %struct.H5D_shared_t, ptr %30, i32 0, i32 7
  %32 = getelementptr inbounds nuw %struct.H5D_dcpl_cache_t, ptr %31, i32 0, i32 2
  %33 = getelementptr inbounds nuw %struct.H5O_efl_t, ptr %32, i32 0, i32 2
  %34 = load i64, ptr %33, align 8, !tbaa !142
  %35 = icmp eq i64 %34, 0
  br i1 %35, label %46, label %36

36:                                               ; preds = %27
  %37 = load ptr, ptr %2, align 8, !tbaa !49
  %38 = getelementptr inbounds nuw %struct.H5D_t, ptr %37, i32 0, i32 2
  %39 = load ptr, ptr %38, align 8, !tbaa !61
  %40 = getelementptr inbounds nuw %struct.H5D_shared_t, ptr %39, i32 0, i32 8
  %41 = getelementptr inbounds nuw %struct.H5O_layout_t, ptr %40, i32 0, i32 4
  %42 = getelementptr inbounds nuw %struct.H5O_storage_t, ptr %41, i32 0, i32 1
  %43 = getelementptr inbounds nuw %struct.H5O_storage_contig_t, ptr %42, i32 0, i32 0
  %44 = load i64, ptr %43, align 8, !tbaa !68
  %45 = icmp ne i64 %44, -1
  br i1 %45, label %46, label %61

46:                                               ; preds = %36, %27
  %47 = load ptr, ptr %2, align 8, !tbaa !49
  %48 = getelementptr inbounds nuw %struct.H5D_t, ptr %47, i32 0, i32 2
  %49 = load ptr, ptr %48, align 8, !tbaa !61
  %50 = getelementptr inbounds nuw %struct.H5D_shared_t, ptr %49, i32 0, i32 8
  %51 = getelementptr inbounds nuw %struct.H5O_layout_t, ptr %50, i32 0, i32 4
  %52 = getelementptr inbounds nuw %struct.H5O_storage_t, ptr %51, i32 0, i32 1
  %53 = getelementptr inbounds nuw %struct.H5O_storage_contig_t, ptr %52, i32 0, i32 0
  %54 = load i64, ptr %53, align 8, !tbaa !68
  %55 = load ptr, ptr %2, align 8, !tbaa !49
  %56 = getelementptr inbounds nuw %struct.H5D_t, ptr %55, i32 0, i32 0
  %57 = getelementptr inbounds nuw %struct.H5O_loc_t, ptr %56, i32 0, i32 0
  %58 = load ptr, ptr %57, align 8, !tbaa !96
  %59 = call i64 @H5F_get_base_addr(ptr noundef %58)
  %60 = add i64 %54, %59
  store i64 %60, ptr %3, align 8, !tbaa !11
  br label %61

61:                                               ; preds = %46, %36
  br label %82

62:                                               ; preds = %19, %19
  br label %63

63:                                               ; preds = %19, %62
  br label %64

64:                                               ; preds = %63
  br label %65

65:                                               ; preds = %64
  br label %66

66:                                               ; preds = %65
  %67 = load i64, ptr @H5E_ARGS_g, align 8, !tbaa !11
  %68 = load i64, ptr @H5E_BADTYPE_g, align 8, !tbaa !11
  %69 = call i32 (ptr, ptr, i32, i64, i64, ptr, ...) @H5E_printf_stack(ptr noundef @.str.2, ptr noundef @__func__.H5D__get_offset, i32 noundef 2631, i64 noundef %67, i64 noundef %68, ptr noundef @.str.88)
  br label %70

70:                                               ; preds = %66
  br label %71

71:                                               ; preds = %70
  store i8 1, ptr %4, align 1, !tbaa !7
  %72 = load i8, ptr %4, align 1, !tbaa !7, !range !9, !noundef !10
  %73 = trunc i8 %72 to i1
  %74 = zext i1 %73 to i8
  store i8 %74, ptr %4, align 1, !tbaa !7
  br label %75

75:                                               ; preds = %71
  br label %76

76:                                               ; preds = %75
  br label %77

77:                                               ; preds = %76
  store i64 -1, ptr %3, align 8, !tbaa !11
  br label %83

78:                                               ; No predecessors!
  br label %79

79:                                               ; preds = %78
  br label %80

80:                                               ; preds = %79
  br label %81

81:                                               ; preds = %80
  br label %82

82:                                               ; preds = %81, %61, %26
  br label %83

83:                                               ; preds = %82, %77
  br label %84

84:                                               ; preds = %83, %11
  %85 = load i64, ptr %3, align 8, !tbaa !11
  call void @llvm.lifetime.end.p0(i64 1, ptr %4) #12
  call void @llvm.lifetime.end.p0(i64 8, ptr %3) #12
  ret i64 %85
}