; Function Attrs: nounwind uwtable
define i64 @H5D__get_offset(ptr noundef readonly captures(none) %0) local_unnamed_addr #0 {
  %2 = load i8, ptr @H5D_init_g, align 1, !tbaa !3, !range !7, !noundef !8
  %3 = trunc nuw i8 %2 to i1
  %4 = load i8, ptr @H5_libterm_g, align 1, !range !7
  %5 = trunc nuw i8 %4 to i1
  %6 = xor i1 %5, true
  %7 = select i1 %3, i1 true, i1 %6
  br i1 %7, label %8, label %24, !prof !9

8:                                                ; preds = %1
  %9 = getelementptr inbounds nuw i8, ptr %0, i64 48
  %10 = load ptr, ptr %9, align 8, !tbaa !52
  %11 = getelementptr inbounds nuw i8, ptr %10, i64 248
  %12 = load i32, ptr %11, align 8, !tbaa !58
  switch i32 %12, label %20 [
    i32 3, label %24
    i32 2, label %24
    i32 0, label %24
    i32 1, label %13
  ]

13:                                               ; preds = %8
  %14 = getelementptr inbounds nuw i8, ptr %10, i64 232
  %15 = load i64, ptr %14, align 8, !tbaa !91
  %16 = icmp ne i64 %15, 0
  %.phi.trans.insert = getelementptr inbounds nuw i8, ptr %10, i64 2168
  %.pre = load i64, ptr %.phi.trans.insert, align 8, !tbaa !59
  %.not = icmp eq i64 %.pre, -1
  %or.cond = select i1 %16, i1 %.not, i1 false
  br i1 %or.cond, label %24, label %._crit_edge

._crit_edge:                                      ; preds = %13
  %17 = load ptr, ptr %0, align 8, !tbaa !81
  %18 = tail call i64 @H5F_get_base_addr(ptr noundef %17) #12
  %19 = add i64 %18, %.pre
  br label %24

20:                                               ; preds = %8
  %21 = load i64, ptr @H5E_ARGS_g, align 8, !tbaa !10
  %22 = load i64, ptr @H5E_BADTYPE_g, align 8, !tbaa !10
  %23 = tail call i32 (ptr, ptr, i32, i64, i64, ptr, ...) @H5E_printf_stack(ptr noundef nonnull @.str.2, ptr noundef nonnull @__func__.H5D__get_offset, i32 noundef 2631, i64 noundef %21, i64 noundef %22, ptr noundef nonnull @.str.88) #12
  br label %24

24:                                               ; preds = %13, %20, %._crit_edge, %8, %8, %8, %1
  %.0 = phi i64 [ -1, %20 ], [ %19, %._crit_edge ], [ -1, %8 ], [ -1, %8 ], [ -1, %8 ], [ -1, %1 ], [ -1, %13 ]
  ret i64 %.0
}